; Function Attrs: mustprogress uwtable
define void @_Z18gmx_ana_index_dumpPN3gmx10TextWriterEP15gmx_ana_index_ti(ptr noundef %0, ptr noundef readonly captures(none) %1, i32 noundef %2) local_unnamed_addr #0 personality ptr @__gxx_personality_v0 {
  %4 = alloca %"class.std::__cxx11::basic_string", align 8
  %5 = alloca %"class.std::__cxx11::basic_string", align 8
  call void @llvm.lifetime.start.p0(i64 32, ptr nonnull %4) #28
  %6 = load i32, ptr %1, align 8, !tbaa !73
  call void (ptr, ptr, ...) @_ZN3gmx12formatStringB5cxx11EPKcz(ptr dead_on_unwind nonnull writable sret(%"class.std::__cxx11::basic_string") align 8 %4, ptr noundef nonnull @.str.13, i32 noundef %6)
  invoke void @_ZN3gmx10TextWriter11writeStringERKNSt7__cxx1112basic_stringIcSt11char_traitsIcESaIcEEE(ptr noundef nonnull align 8 dereferenceable(8) %0, ptr noundef nonnull align 8 dereferenceable(32) %4)
          to label %7 unwind label %24

7:                                                ; preds = %3
  %8 = load ptr, ptr %4, align 8, !tbaa !18
  %9 = getelementptr inbounds nuw i8, ptr %4, i64 16
  %10 = icmp eq ptr %8, %9
  br i1 %10, label %_ZNKSt7__cxx1112basic_stringIcSt11char_traitsIcESaIcEE11_M_is_localEv.exit.thread.i.i, label %_ZNKSt7__cxx1112basic_stringIcSt11char_traitsIcESaIcEE11_M_is_localEv.exit.i.i

_ZNKSt7__cxx1112basic_stringIcSt11char_traitsIcESaIcEE11_M_is_localEv.exit.thread.i.i: ; preds = %7
  %11 = getelementptr inbounds nuw i8, ptr %4, i64 8
  %12 = load i64, ptr %11, align 8, !tbaa !23
  %13 = icmp ult i64 %12, 16
  call void @llvm.assume(i1 %13)
  br label %_ZNSt7__cxx1112basic_stringIcSt11char_traitsIcESaIcEED2Ev.exit

_ZNKSt7__cxx1112basic_stringIcSt11char_traitsIcESaIcEE11_M_is_localEv.exit.i.i: ; preds = %7
  %14 = load i64, ptr %9, align 8, !tbaa !24
  %15 = add i64 %14, 1
  call void @_ZdlPvm(ptr noundef %8, i64 noundef %15) #25
  br label %_ZNSt7__cxx1112basic_stringIcSt11char_traitsIcESaIcEED2Ev.exit

_ZNSt7__cxx1112basic_stringIcSt11char_traitsIcESaIcEED2Ev.exit: ; preds = %_ZNKSt7__cxx1112basic_stringIcSt11char_traitsIcESaIcEE11_M_is_localEv.exit.thread.i.i, %_ZNKSt7__cxx1112basic_stringIcSt11char_traitsIcESaIcEE11_M_is_localEv.exit.i.i
  call void @llvm.lifetime.end.p0(i64 32, ptr nonnull %4) #28
  %.not = icmp eq i32 %2, 0
  br i1 %.not, label %57, label %16

16:                                               ; preds = %_ZNSt7__cxx1112basic_stringIcSt11char_traitsIcESaIcEED2Ev.exit
  call void @_ZN3gmx10TextWriter11writeStringEPKc(ptr noundef nonnull align 8 dereferenceable(8) %0, ptr noundef nonnull @.str.14)
  %17 = load i32, ptr %1, align 8, !tbaa !73
  %18 = call i32 @llvm.smin.i32(i32 %17, i32 %2)
  %19 = icmp slt i32 %2, 0
  %.020 = select i1 %19, i32 %17, i32 %18
  %20 = icmp sgt i32 %.020, 0
  br i1 %20, label %.lr.ph, label %._crit_edge

.lr.ph:                                           ; preds = %16
  %21 = getelementptr inbounds nuw i8, ptr %1, i64 8
  %22 = getelementptr inbounds nuw i8, ptr %5, i64 16
  %23 = getelementptr inbounds nuw i8, ptr %5, i64 8
  %wide.trip.count = zext nneg i32 %.020 to i64
  br label %36

24:                                               ; preds = %3
  %25 = landingpad { ptr, i32 }
          cleanup
  %26 = load ptr, ptr %4, align 8, !tbaa !18
  %27 = getelementptr inbounds nuw i8, ptr %4, i64 16
  %28 = icmp eq ptr %26, %27
  br i1 %28, label %_ZNKSt7__cxx1112basic_stringIcSt11char_traitsIcESaIcEE11_M_is_localEv.exit.thread.i.i27, label %_ZNKSt7__cxx1112basic_stringIcSt11char_traitsIcESaIcEE11_M_is_localEv.exit.i.i26

_ZNKSt7__cxx1112basic_stringIcSt11char_traitsIcESaIcEE11_M_is_localEv.exit.thread.i.i27: ; preds = %24
  %29 = getelementptr inbounds nuw i8, ptr %4, i64 8
  %30 = load i64, ptr %29, align 8, !tbaa !23
  %31 = icmp ult i64 %30, 16
  call void @llvm.assume(i1 %31)
  br label %_ZNSt7__cxx1112basic_stringIcSt11char_traitsIcESaIcEED2Ev.exit28

_ZNKSt7__cxx1112basic_stringIcSt11char_traitsIcESaIcEE11_M_is_localEv.exit.i.i26: ; preds = %24
  %32 = load i64, ptr %27, align 8, !tbaa !24
  %33 = add i64 %32, 1
  call void @_ZdlPvm(ptr noundef %26, i64 noundef %33) #25
  br label %_ZNSt7__cxx1112basic_stringIcSt11char_traitsIcESaIcEED2Ev.exit28

_ZNSt7__cxx1112basic_stringIcSt11char_traitsIcESaIcEED2Ev.exit28: ; preds = %_ZNKSt7__cxx1112basic_stringIcSt11char_traitsIcESaIcEE11_M_is_localEv.exit.thread.i.i27, %_ZNKSt7__cxx1112basic_stringIcSt11char_traitsIcESaIcEE11_M_is_localEv.exit.i.i26
  call void @llvm.lifetime.end.p0(i64 32, ptr nonnull %4) #28
  br label %58

._crit_edge.loopexit:                             ; preds = %_ZNSt7__cxx1112basic_stringIcSt11char_traitsIcESaIcEED2Ev.exit31
  %.pre = load i32, ptr %1, align 8, !tbaa !73
  br label %._crit_edge

._crit_edge:                                      ; preds = %._crit_edge.loopexit, %16
  %34 = phi i32 [ %.pre, %._crit_edge.loopexit ], [ %17, %16 ]
  %35 = icmp slt i32 %.020, %34
  br i1 %35, label %56, label %57

36:                                               ; preds = %.lr.ph, %_ZNSt7__cxx1112basic_stringIcSt11char_traitsIcESaIcEED2Ev.exit31
  %indvars.iv = phi i64 [ 0, %.lr.ph ], [ %indvars.iv.next, %_ZNSt7__cxx1112basic_stringIcSt11char_traitsIcESaIcEED2Ev.exit31 ]
  call void @llvm.lifetime.start.p0(i64 32, ptr nonnull %5) #28
  %37 = load ptr, ptr %21, align 8, !tbaa !108
  %38 = getelementptr inbounds nuw i32, ptr %37, i64 %indvars.iv
  %39 = load i32, ptr %38, align 4, !tbaa !36
  %40 = add nsw i32 %39, 1
  call void (ptr, ptr, ...) @_ZN3gmx12formatStringB5cxx11EPKcz(ptr dead_on_unwind nonnull writable sret(%"class.std::__cxx11::basic_string") align 8 %5, ptr noundef nonnull @.str.15, i32 noundef %40)
  invoke void @_ZN3gmx10TextWriter11writeStringERKNSt7__cxx1112basic_stringIcSt11char_traitsIcESaIcEEE(ptr noundef nonnull align 8 dereferenceable(8) %0, ptr noundef nonnull align 8 dereferenceable(32) %5)
          to label %41 unwind label %48

41:                                               ; preds = %36
  %42 = load ptr, ptr %5, align 8, !tbaa !18
  %43 = icmp eq ptr %42, %22
  br i1 %43, label %_ZNKSt7__cxx1112basic_stringIcSt11char_traitsIcESaIcEE11_M_is_localEv.exit.thread.i.i30, label %_ZNKSt7__cxx1112basic_stringIcSt11char_traitsIcESaIcEE11_M_is_localEv.exit.i.i29

_ZNKSt7__cxx1112basic_stringIcSt11char_traitsIcESaIcEE11_M_is_localEv.exit.thread.i.i30: ; preds = %41
  %44 = load i64, ptr %23, align 8, !tbaa !23
  %45 = icmp ult i64 %44, 16
  call void @llvm.assume(i1 %45)
  br label %_ZNSt7__cxx1112basic_stringIcSt11char_traitsIcESaIcEED2Ev.exit31

_ZNKSt7__cxx1112basic_stringIcSt11char_traitsIcESaIcEE11_M_is_localEv.exit.i.i29: ; preds = %41
  %46 = load i64, ptr %22, align 8, !tbaa !24
  %47 = add i64 %46, 1
  call void @_ZdlPvm(ptr noundef %42, i64 noundef %47) #25
  br label %_ZNSt7__cxx1112basic_stringIcSt11char_traitsIcESaIcEED2Ev.exit31

_ZNSt7__cxx1112basic_stringIcSt11char_traitsIcESaIcEED2Ev.exit31: ; preds = %_ZNKSt7__cxx1112basic_stringIcSt11char_traitsIcESaIcEE11_M_is_localEv.exit.thread.i.i30, %_ZNKSt7__cxx1112basic_stringIcSt11char_traitsIcESaIcEE11_M_is_localEv.exit.i.i29
  call void @llvm.lifetime.end.p0(i64 32, ptr nonnull %5) #28
  %indvars.iv.next = add nuw nsw i64 %indvars.iv, 1
  %exitcond.not = icmp eq i64 %indvars.iv.next, %wide.trip.count
  br i1 %exitcond.not, label %._crit_edge.loopexit, label %36, !llvm.loop !111

48:                                               ; preds = %36
  %49 = landingpad { ptr, i32 }
          cleanup
  %50 = load ptr, ptr %5, align 8, !tbaa !18
  %51 = icmp eq ptr %50, %22
  br i1 %51, label %_ZNKSt7__cxx1112basic_stringIcSt11char_traitsIcESaIcEE11_M_is_localEv.exit.thread.i.i33, label %_ZNKSt7__cxx1112basic_stringIcSt11char_traitsIcESaIcEE11_M_is_localEv.exit.i.i32

_ZNKSt7__cxx1112basic_stringIcSt11char_traitsIcESaIcEE11_M_is_localEv.exit.thread.i.i33: ; preds = %48
  %52 = load i64, ptr %23, align 8, !tbaa !23
  %53 = icmp ult i64 %52, 16
  call void @llvm.assume(i1 %53)
  br label %_ZNSt7__cxx1112basic_stringIcSt11char_traitsIcESaIcEED2Ev.exit34

_ZNKSt7__cxx1112basic_stringIcSt11char_traitsIcESaIcEE11_M_is_localEv.exit.i.i32: ; preds = %48
  %54 = load i64, ptr %22, align 8, !tbaa !24
  %55 = add i64 %54, 1
  call void @_ZdlPvm(ptr noundef %50, i64 noundef %55) #25
  br label %_ZNSt7__cxx1112basic_stringIcSt11char_traitsIcESaIcEED2Ev.exit34

_ZNSt7__cxx1112basic_stringIcSt11char_traitsIcESaIcEED2Ev.exit34: ; preds = %_ZNKSt7__cxx1112basic_stringIcSt11char_traitsIcESaIcEE11_M_is_localEv.exit.thread.i.i33, %_ZNKSt7__cxx1112basic_stringIcSt11char_traitsIcESaIcEE11_M_is_localEv.exit.i.i32
  call void @llvm.lifetime.end.p0(i64 32, ptr nonnull %5) #28
  br label %58

56:                                               ; preds = %._crit_edge
  call void @_ZN3gmx10TextWriter11writeStringEPKc(ptr noundef nonnull align 8 dereferenceable(8) %0, ptr noundef nonnull @.str.16)
  br label %57

57:                                               ; preds = %._crit_edge, %56, %_ZNSt7__cxx1112basic_stringIcSt11char_traitsIcESaIcEED2Ev.exit
  call void @_ZN3gmx10TextWriter15ensureLineBreakEv(ptr noundef nonnull align 8 dereferenceable(8) %0)
  ret void

58:                                               ; preds = %_ZNSt7__cxx1112basic_stringIcSt11char_traitsIcESaIcEED2Ev.exit34, %_ZNSt7__cxx1112basic_stringIcSt11char_traitsIcESaIcEED2Ev.exit28
  %.pn = phi { ptr, i32 } [ %49, %_ZNSt7__cxx1112basic_stringIcSt11char_traitsIcESaIcEED2Ev.exit34 ], [ %25, %_ZNSt7__cxx1112basic_stringIcSt11char_traitsIcESaIcEED2Ev.exit28 ]
  resume { ptr, i32 } %.pn
}